target datalayout = "e-m:e-p270:32:32-p271:32:32-p272:64:64-i64:64-i128:128-f80:128-n8:16:32:64-S128"
target triple = "x86_64-unknown-linux-gnu"

%"class.OpenColorIO_v2_4dev::DynamicPropertyImpl" = type <{ %"class.OpenColorIO_v2_4dev::DynamicProperty", i32, i8, [3 x i8] }>
%"class.OpenColorIO_v2_4dev::DynamicProperty" = type { ptr }
%"class.OpenColorIO_v2_4dev::DynamicPropertyImpl.base" = type <{ %"class.OpenColorIO_v2_4dev::DynamicProperty", i32, i8 }>
%"class.OpenColorIO_v2_4dev::DynamicPropertyGradingToneImpl" = type { %"class.OpenColorIO_v2_4dev::DynamicPropertyImpl.base", %"class.OpenColorIO_v2_4dev::DynamicPropertyGradingTone", %"struct.OpenColorIO_v2_4dev::GradingTone", %"struct.OpenColorIO_v2_4dev::GradingTonePreRender" }
%"class.OpenColorIO_v2_4dev::DynamicPropertyGradingTone" = type { ptr }
%"struct.OpenColorIO_v2_4dev::GradingTone" = type { %"struct.OpenColorIO_v2_4dev::GradingRGBMSW", %"struct.OpenColorIO_v2_4dev::GradingRGBMSW", %"struct.OpenColorIO_v2_4dev::GradingRGBMSW", %"struct.OpenColorIO_v2_4dev::GradingRGBMSW", %"struct.OpenColorIO_v2_4dev::GradingRGBMSW", double }
%"struct.OpenColorIO_v2_4dev::GradingRGBMSW" = type { double, double, double, double, double, double }
%"struct.OpenColorIO_v2_4dev::GradingTonePreRender" = type { double, double, double, double, double, double, double, double, [4 x [6 x float]], [4 x [6 x float]], [4 x [6 x float]], [2 x [4 x [3 x float]]], [2 x [4 x [3 x float]]], [2 x [4 x [2 x float]]], [2 x [4 x [2 x float]]], [2 x [4 x [2 x float]]], [2 x [4 x [2 x float]]], [2 x [4 x float]], [2 x [4 x float]], [2 x [4 x float]], [2 x [2 x float]], float, float, float, float, i8, i32 }

; Function Attrs: mustprogress nounwind uwtable
define linkonce_odr hidden void @_ZN19OpenColorIO_v2_4dev15DynamicPropertyC2Ev(ptr noundef nonnull align 8 dereferenceable(8) %this) unnamed_addr #1 comdat align 2 {
entry:
  %this.addr = alloca ptr, align 8
  store ptr %this, ptr %this.addr, align 8
  %this1 = load ptr, ptr %this.addr, align 8
  store ptr getelementptr inbounds ({ [5 x ptr] }, ptr @_ZTVN19OpenColorIO_v2_4dev15DynamicPropertyE, i32 0, i32 0, i32 2), ptr %this1, align 8
  ret void
}

; Function Attrs: mustprogress nounwind uwtable
define linkonce_odr hidden void @_ZN19OpenColorIO_v2_4dev26DynamicPropertyGradingToneC2Ev(ptr noundef nonnull align 8 dereferenceable(8) %this) unnamed_addr #1 comdat align 2 {
entry:
  %this.addr = alloca ptr, align 8
  store ptr %this, ptr %this.addr, align 8
  %this1 = load ptr, ptr %this.addr, align 8
  store ptr getelementptr inbounds ({ [6 x ptr] }, ptr @_ZTVN19OpenColorIO_v2_4dev26DynamicPropertyGradingToneE, i32 0, i32 0, i32 2), ptr %this1, align 8
  ret void
}

; Function Attrs: mustprogress nounwind uwtable
define hidden void @_ZN19OpenColorIO_v2_4dev19DynamicPropertyImplC2ENS_19DynamicPropertyTypeEb(ptr noundef nonnull align 8 dereferenceable(13) %this, i32 noundef %type, i1 noundef zeroext %dynamic) unnamed_addr #1 align 2 {
entry:
  %this.addr = alloca ptr, align 8
  %type.addr = alloca i32, align 4
  %dynamic.addr = alloca i8, align 1
  store ptr %this, ptr %this.addr, align 8
  store i32 %type, ptr %type.addr, align 4
  %frombool = zext i1 %dynamic to i8
  store i8 %frombool, ptr %dynamic.addr, align 1
  %this1 = load ptr, ptr %this.addr, align 8
  call void @_ZN19OpenColorIO_v2_4dev15DynamicPropertyC2Ev(ptr noundef nonnull align 8 dereferenceable(8) %this1) #13
  store ptr getelementptr inbounds ({ [5 x ptr] }, ptr @_ZTVN19OpenColorIO_v2_4dev19DynamicPropertyImplE, i32 0, i32 0, i32 2), ptr %this1, align 8
  %m_type = getelementptr inbounds %"class.OpenColorIO_v2_4dev::DynamicPropertyImpl", ptr %this1, i32 0, i32 1
  %0 = load i32, ptr %type.addr, align 4
  store i32 %0, ptr %m_type, align 8
  %m_isDynamic = getelementptr inbounds %"class.OpenColorIO_v2_4dev::DynamicPropertyImpl", ptr %this1, i32 0, i32 2
  %1 = load i8, ptr %dynamic.addr, align 1
  %tobool = trunc i8 %1 to i1
  %frombool2 = zext i1 %tobool to i8
  store i8 %frombool2, ptr %m_isDynamic, align 4
  ret void
}

; Function Attrs: mustprogress nounwind uwtable
define hidden void @_ZN19OpenColorIO_v2_4dev30DynamicPropertyGradingToneImplC2ERKNS_11GradingToneERKNS_20GradingTonePreRenderEb(ptr noundef nonnull align 8 dereferenceable(1208) %this, ptr noundef nonnull align 8 dereferenceable(248) %value, ptr noundef nonnull align 8 dereferenceable(936) %comp, i1 noundef zeroext %dynamic) unnamed_addr #1 align 2 {
entry:
  %this.addr = alloca ptr, align 8
  %value.addr = alloca ptr, align 8
  %comp.addr = alloca ptr, align 8
  %dynamic.addr = alloca i8, align 1
  store ptr %this, ptr %this.addr, align 8
  store ptr %value, ptr %value.addr, align 8
  store ptr %comp, ptr %comp.addr, align 8
  %frombool = zext i1 %dynamic to i8
  store i8 %frombool, ptr %dynamic.addr, align 1
  %this1 = load ptr, ptr %this.addr, align 8
  %0 = load i8, ptr %dynamic.addr, align 1
  %tobool = trunc i8 %0 to i1
  call void @_ZN19OpenColorIO_v2_4dev19DynamicPropertyImplC2ENS_19DynamicPropertyTypeEb(ptr noundef nonnull align 8 dereferenceable(13) %this1, i32 noundef 5, i1 noundef zeroext %tobool)
  %1 = getelementptr inbounds i8, ptr %this1, i64 16
  call void @_ZN19OpenColorIO_v2_4dev26DynamicPropertyGradingToneC2Ev(ptr noundef nonnull align 8 dereferenceable(8) %1) #13
  store ptr getelementptr inbounds ({ [7 x ptr], [6 x ptr] }, ptr @_ZTVN19OpenColorIO_v2_4dev30DynamicPropertyGradingToneImplE, i32 0, i32 0, i32 2), ptr %this1, align 8
  %add.ptr = getelementptr inbounds i8, ptr %this1, i64 16
  store ptr getelementptr inbounds ({ [7 x ptr], [6 x ptr] }, ptr @_ZTVN19OpenColorIO_v2_4dev30DynamicPropertyGradingToneImplE, i32 0, i32 1, i32 2), ptr %add.ptr, align 8
  %m_value = getelementptr inbounds %"class.OpenColorIO_v2_4dev::DynamicPropertyGradingToneImpl", ptr %this1, i32 0, i32 2
  %2 = load ptr, ptr %value.addr, align 8
  call void @llvm.memcpy.p0.p0.i64(ptr align 8 %m_value, ptr align 8 %2, i64 248, i1 false)
  %m_preRenderValues = getelementptr inbounds %"class.OpenColorIO_v2_4dev::DynamicPropertyGradingToneImpl", ptr %this1, i32 0, i32 3
  %3 = load ptr, ptr %comp.addr, align 8
  call void @llvm.memcpy.p0.p0.i64(ptr align 8 %m_preRenderValues, ptr align 8 %3, i64 936, i1 false)
  ret void
}